target datalayout = "e-m:e-p270:32:32-p271:32:32-p272:64:64-i64:64-i128:128-f80:128-n8:16:32:64-S128"
target triple = "x86_64-pc-linux-gnu"

%class.substitution_tree = type { ptr, %class.ptr_vector, i32, %class.ptr_vector.0, i32, %class.ptr_vector.2, i32, %class.bit_vector, %class.svector, %class.svector.5, %class.svector.5, ptr, %class.ptr_vector, i32, i32, i32, %class.svector.7 }
%class.ptr_vector.0 = type { %class.vector.1 }
%class.vector.1 = type { ptr }
%class.ptr_vector.2 = type { %class.vector.3 }
%class.vector.3 = type { ptr }
%class.bit_vector = type { i32, i32, ptr }
%class.svector = type { %class.vector.4 }
%class.vector.4 = type { ptr }
%class.svector.5 = type { %class.vector.6 }
%class.vector.6 = type { ptr }
%class.ptr_vector = type { %class.vector }
%class.vector = type { ptr }
%class.svector.7 = type { %class.vector.8 }
%class.vector.8 = type { ptr }
%class.ast = type { i32, i32, i32, i32 }
%"struct.substitution_tree::node" = type { i8, %class.svector.5, ptr, %union.anon }
%union.anon = type { ptr }

; Function Attrs: mustprogress nounwind uwtable
define linkonce_odr hidden void @_ZN6vectorISt4pairIP3varP4exprELb0EjEC2Ev(ptr noundef nonnull align 8 dereferenceable(8) %0) unnamed_addr #6 comdat align 2 {
  %2 = alloca ptr, align 8
  store ptr %0, ptr %2, align 8, !tbaa !94
  %3 = load ptr, ptr %2, align 8
  %4 = getelementptr inbounds nuw %class.vector.6, ptr %3, i32 0, i32 0
  store ptr null, ptr %4, align 8, !tbaa !96
  ret void
}

; Function Attrs: mustprogress nounwind uwtable
define linkonce_odr hidden void @_ZN3ast7inc_refEv(ptr noundef nonnull align 4 dereferenceable(16) %0) #6 comdat align 2 {
  %2 = alloca ptr, align 8
  store ptr %0, ptr %2, align 8, !tbaa !62
  %3 = load ptr, ptr %2, align 8
  %4 = getelementptr inbounds nuw %class.ast, ptr %3, i32 0, i32 2
  %5 = load i32, ptr %4, align 4, !tbaa !226
  %6 = add i32 %5, 1
  store i32 %6, ptr %4, align 4, !tbaa !226
  ret void
}

; Function Attrs: mustprogress nounwind uwtable
define linkonce_odr hidden void @_ZN7svectorISt4pairIP3varP4exprEjEC2Ev(ptr noundef nonnull align 8 dereferenceable(8) %0) unnamed_addr #6 comdat align 2 {
  %2 = alloca ptr, align 8
  store ptr %0, ptr %2, align 8, !tbaa !44
  %3 = load ptr, ptr %2, align 8
  call void @_ZN6vectorISt4pairIP3varP4exprELb0EjEC2Ev(ptr noundef nonnull align 8 dereferenceable(8) %3) #3
  ret void
}

; Function Attrs: mustprogress uwtable
define linkonce_odr hidden void @_ZN11ast_manager7inc_refEP3ast(ptr noundef nonnull align 8 dereferenceable(976) %0, ptr noundef %1) #4 comdat align 2 {
  %3 = alloca ptr, align 8
  %4 = alloca ptr, align 8
  store ptr %0, ptr %3, align 8, !tbaa !106
  store ptr %1, ptr %4, align 8, !tbaa !62
  %5 = load ptr, ptr %4, align 8, !tbaa !62
  %6 = icmp ne ptr %5, null
  br i1 %6, label %7, label %9

7:                                                ; preds = %2
  %8 = load ptr, ptr %4, align 8, !tbaa !62
  call void @_ZN3ast7inc_refEv(ptr noundef nonnull align 4 dereferenceable(16) %8)
  br label %9

9:                                                ; preds = %7, %2
  ret void
}

; Function Attrs: mustprogress nounwind uwtable
define linkonce_odr hidden void @_ZN17substitution_tree4nodeC2Eb(ptr noundef nonnull align 8 dereferenceable(32) %0, i1 noundef zeroext %1) unnamed_addr #6 comdat align 2 {
  %3 = alloca ptr, align 8
  %4 = alloca i8, align 1
  store ptr %0, ptr %3, align 8, !tbaa !97
  %5 = zext i1 %1 to i8
  store i8 %5, ptr %4, align 1, !tbaa !40
  %6 = load ptr, ptr %3, align 8
  %7 = getelementptr inbounds nuw %"struct.substitution_tree::node", ptr %6, i32 0, i32 0
  %8 = load i8, ptr %4, align 1, !tbaa !40, !range !42, !noundef !43
  %9 = trunc i8 %8 to i1
  %10 = zext i1 %9 to i8
  store i8 %10, ptr %7, align 8, !tbaa !105
  %11 = getelementptr inbounds nuw %"struct.substitution_tree::node", ptr %6, i32 0, i32 1
  call void @_ZN7svectorISt4pairIP3varP4exprEjEC2Ev(ptr noundef nonnull align 8 dereferenceable(8) %11) #3
  %12 = getelementptr inbounds nuw %"struct.substitution_tree::node", ptr %6, i32 0, i32 2
  store ptr null, ptr %12, align 8, !tbaa !100
  %13 = getelementptr inbounds nuw %"struct.substitution_tree::node", ptr %6, i32 0, i32 3
  store ptr null, ptr %13, align 8, !tbaa !99
  ret void
}

; Function Attrs: mustprogress uwtable
define hidden noundef ptr @_ZN17substitution_tree11mk_node_forEP4expr(ptr noundef nonnull align 8 dereferenceable(136) %0, ptr noundef %1) #4 align 2 {
  %3 = alloca ptr, align 8
  %4 = alloca ptr, align 8
  %5 = alloca ptr, align 8
  store ptr %0, ptr %3, align 8, !tbaa !3
  store ptr %1, ptr %4, align 8, !tbaa !46
  %6 = load ptr, ptr %3, align 8
  call void @llvm.lifetime.start.p0(i64 8, ptr %5) #3
  %7 = call noalias noundef ptr @_ZN6memory8allocateEm(i64 noundef 32)
  call void @_ZN17substitution_tree4nodeC2Eb(ptr noundef nonnull align 8 dereferenceable(32) %7, i1 noundef zeroext true)
  store ptr %7, ptr %5, align 8, !tbaa !97
  %8 = load ptr, ptr %5, align 8, !tbaa !97
  %9 = getelementptr inbounds nuw %"struct.substitution_tree::node", ptr %8, i32 0, i32 1
  call void @_ZN17substitution_tree9linearizeER7svectorISt4pairIP3varP4exprEjE(ptr noundef nonnull align 8 dereferenceable(136) %6, ptr noundef nonnull align 8 dereferenceable(8) %9)
  %10 = load ptr, ptr %4, align 8, !tbaa !46
  %11 = load ptr, ptr %5, align 8, !tbaa !97
  %12 = getelementptr inbounds nuw %"struct.substitution_tree::node", ptr %11, i32 0, i32 3
  store ptr %10, ptr %12, align 8, !tbaa !99
  %13 = getelementptr inbounds nuw %class.substitution_tree, ptr %6, i32 0, i32 0
  %14 = load ptr, ptr %13, align 8, !tbaa !48
  %15 = load ptr, ptr %4, align 8, !tbaa !46
  call void @_ZN11ast_manager7inc_refEP3ast(ptr noundef nonnull align 8 dereferenceable(976) %14, ptr noundef %15)
  %16 = load ptr, ptr %5, align 8, !tbaa !97
  call void @llvm.lifetime.end.p0(i64 8, ptr %5) #3
  ret ptr %16
}