; Function Attrs: mustprogress uwtable
define hidden noundef ptr @_ZN17substitution_tree11mk_node_forEP4expr(ptr noundef nonnull align 8 captures(none) dereferenceable(136) %0, ptr noundef %1) local_unnamed_addr #5 align 2 {
  %3 = tail call noalias noundef ptr @_ZN6memory8allocateEm(i64 noundef 32)
  store i8 1, ptr %3, align 8, !tbaa !79
  %4 = getelementptr inbounds nuw i8, ptr %3, i64 8
  tail call void @llvm.memset.p0.i64(ptr noundef nonnull align 8 dereferenceable(24) %4, i8 0, i64 24, i1 false)
  tail call void @_ZN17substitution_tree9linearizeER7svectorISt4pairIP3varP4exprEjE(ptr noundef nonnull align 8 dereferenceable(136) %0, ptr noundef nonnull align 8 dereferenceable(8) %4)
  %5 = getelementptr inbounds nuw i8, ptr %3, i64 24
  store ptr %1, ptr %5, align 8, !tbaa !63
  %.not.i = icmp eq ptr %1, null
  br i1 %.not.i, label %_ZN11ast_manager7inc_refEP3ast.exit, label %6

6:                                                ; preds = %2
  %7 = getelementptr inbounds nuw i8, ptr %1, i64 8
  %8 = load i32, ptr %7, align 4, !tbaa !44
  %9 = add i32 %8, 1
  store i32 %9, ptr %7, align 4, !tbaa !44
  br label %_ZN11ast_manager7inc_refEP3ast.exit

_ZN11ast_manager7inc_refEP3ast.exit:              ; preds = %2, %6
  ret ptr %3
}